target datalayout = "e-m:e-p270:32:32-p271:32:32-p272:64:64-i64:64-i128:128-f80:128-n8:16:32:64-S128"
target triple = "x86_64-pc-linux-gnu"

; Function Attrs: nounwind sspstrong uwtable
define dso_local ptr @grabbag__replaygain_store_to_file(ptr noundef %0, float noundef %1, float noundef %2, float noundef %3, float noundef %4, i32 noundef %5) #0 {
  %7 = alloca ptr, align 8
  %8 = alloca ptr, align 8
  %9 = alloca float, align 4
  %10 = alloca float, align 4
  %11 = alloca float, align 4
  %12 = alloca float, align 4
  %13 = alloca i32, align 4
  %14 = alloca ptr, align 8
  %15 = alloca ptr, align 8
  %16 = alloca ptr, align 8
  %17 = alloca i32, align 4
  store ptr %0, ptr %8, align 8, !tbaa !28
  store float %1, ptr %9, align 4, !tbaa !15
  store float %2, ptr %10, align 4, !tbaa !15
  store float %3, ptr %11, align 4, !tbaa !15
  store float %4, ptr %12, align 4, !tbaa !15
  store i32 %5, ptr %13, align 4, !tbaa !4
  call void @llvm.lifetime.start.p0(i64 8, ptr %14) #8
  call void @llvm.lifetime.start.p0(i64 8, ptr %15) #8
  store ptr null, ptr %15, align 8, !tbaa !44
  call void @llvm.lifetime.start.p0(i64 8, ptr %16) #8
  %18 = load ptr, ptr %8, align 8, !tbaa !28
  %19 = call ptr @store_to_file_pre_(ptr noundef %18, ptr noundef %14, ptr noundef %15)
  store ptr %19, ptr %16, align 8, !tbaa !28
  %20 = icmp ne ptr null, %19
  br i1 %20, label %21, label %23

21:                                               ; preds = %6
  %22 = load ptr, ptr %16, align 8, !tbaa !28
  store ptr %22, ptr %7, align 8
  store i32 1, ptr %17, align 4
  br label %43

23:                                               ; preds = %6
  %24 = load ptr, ptr %15, align 8, !tbaa !44
  %25 = load float, ptr %9, align 4, !tbaa !15
  %26 = load float, ptr %10, align 4, !tbaa !15
  %27 = load float, ptr %11, align 4, !tbaa !15
  %28 = load float, ptr %12, align 4, !tbaa !15
  %29 = call ptr @grabbag__replaygain_store_to_vorbiscomment(ptr noundef %24, float noundef %25, float noundef %26, float noundef %27, float noundef %28)
  store ptr %29, ptr %16, align 8, !tbaa !28
  %30 = icmp ne ptr null, %29
  br i1 %30, label %31, label %34

31:                                               ; preds = %23
  %32 = load ptr, ptr %14, align 8, !tbaa !52
  call void @FLAC__metadata_chain_delete(ptr noundef %32)
  %33 = load ptr, ptr %16, align 8, !tbaa !28
  store ptr %33, ptr %7, align 8
  store i32 1, ptr %17, align 4
  br label %43

34:                                               ; preds = %23
  %35 = load ptr, ptr %8, align 8, !tbaa !28
  %36 = load ptr, ptr %14, align 8, !tbaa !52
  %37 = load i32, ptr %13, align 4, !tbaa !4
  %38 = call ptr @store_to_file_post_(ptr noundef %35, ptr noundef %36, i32 noundef %37)
  store ptr %38, ptr %16, align 8, !tbaa !28
  %39 = icmp ne ptr null, %38
  br i1 %39, label %40, label %42

40:                                               ; preds = %34
  %41 = load ptr, ptr %16, align 8, !tbaa !28
  store ptr %41, ptr %7, align 8
  store i32 1, ptr %17, align 4
  br label %43

42:                                               ; preds = %34
  store ptr null, ptr %7, align 8
  store i32 1, ptr %17, align 4
  br label %43

43:                                               ; preds = %42, %40, %31, %21
  call void @llvm.lifetime.end.p0(i64 8, ptr %16) #8
  call void @llvm.lifetime.end.p0(i64 8, ptr %15) #8
  call void @llvm.lifetime.end.p0(i64 8, ptr %14) #8
  %44 = load ptr, ptr %7, align 8
  ret ptr %44
}