; Function Attrs: nounwind sspstrong uwtable
define dso_local ptr @grabbag__replaygain_store_to_file(ptr noundef %0, float noundef %1, float noundef %2, float noundef %3, float noundef %4, i32 noundef %5) local_unnamed_addr #0 {
  %7 = alloca ptr, align 8
  %8 = alloca ptr, align 8
  call void @llvm.lifetime.start.p0(i64 8, ptr nonnull %7) #14
  call void @llvm.lifetime.start.p0(i64 8, ptr nonnull %8) #14
  store ptr null, ptr %8, align 8, !tbaa !40
  %9 = call fastcc ptr @store_to_file_pre_(ptr noundef %0, ptr noundef %7, ptr noundef %8)
  %.not = icmp eq ptr %9, null
  br i1 %.not, label %10, label %17

10:                                               ; preds = %6
  %11 = load ptr, ptr %8, align 8, !tbaa !40
  %12 = tail call ptr @grabbag__replaygain_store_to_vorbiscomment(ptr noundef %11, float noundef %1, float noundef %2, float noundef %3, float noundef %4)
  %.not13 = icmp eq ptr %12, null
  %13 = load ptr, ptr %7, align 8, !tbaa !42
  br i1 %.not13, label %15, label %14

14:                                               ; preds = %10
  tail call void @FLAC__metadata_chain_delete(ptr noundef %13) #14
  br label %17

15:                                               ; preds = %10
  %16 = tail call fastcc ptr @store_to_file_post_(ptr noundef %0, ptr noundef %13, i32 noundef %5)
  br label %17

17:                                               ; preds = %15, %6, %14
  %.0 = phi ptr [ %12, %14 ], [ %9, %6 ], [ %16, %15 ]
  call void @llvm.lifetime.end.p0(i64 8, ptr nonnull %8) #14
  call void @llvm.lifetime.end.p0(i64 8, ptr nonnull %7) #14
  ret ptr %.0
}